target datalayout = "e-m:e-p270:32:32-p271:32:32-p272:64:64-i64:64-i128:128-f80:128-n8:16:32:64-S128"
target triple = "x86_64-pc-linux-gnu"

%struct.AVFilterContext = type { ptr, ptr, ptr, ptr, ptr, i32, ptr, ptr, i32, ptr, ptr, i32, i32, ptr, ptr, ptr, ptr, i32, ptr, i32, i32 }
%struct.AVChannelLayout = type { i32, i32, %union.anon.1, ptr }
%union.anon.1 = type { i64 }
%struct.AVRational = type { i32, i32 }
%struct.ChromakeyContext = type { ptr, [4 x i8], [2 x i16], float, float, i32, i32, i32, i32, i32, i32, ptr }
%struct.AVFrame = type { [8 x ptr], [8 x i32], ptr, i32, i32, i32, i32, i32, %struct.AVRational, i64, i64, %struct.AVRational, i32, ptr, i32, i32, [8 x ptr], ptr, i32, ptr, i32, i32, i32, i32, i32, i32, i32, i64, ptr, i32, ptr, ptr, i64, i64, i64, i64, ptr, %struct.AVChannelLayout, i64 }

; Function Attrs: alwaysinline nounwind willreturn memory(none) uwtable
define internal double @av_clipd_c(double noundef %0, double noundef %1, double noundef %2) #8 {
  %4 = alloca double, align 8
  %5 = alloca double, align 8
  %6 = alloca double, align 8
  store double %0, ptr %4, align 8, !tbaa !83
  store double %1, ptr %5, align 8, !tbaa !83
  store double %2, ptr %6, align 8, !tbaa !83
  %7 = load double, ptr %4, align 8, !tbaa !83
  %8 = load double, ptr %5, align 8, !tbaa !83
  %9 = fcmp nsz ogt double %7, %8
  br i1 %9, label %10, label %12

10:                                               ; preds = %3
  %11 = load double, ptr %4, align 8, !tbaa !83
  br label %14

12:                                               ; preds = %3
  %13 = load double, ptr %5, align 8, !tbaa !83
  br label %14

14:                                               ; preds = %12, %10
  %15 = phi nsz double [ %11, %10 ], [ %13, %12 ]
  %16 = load double, ptr %6, align 8, !tbaa !83
  %17 = fcmp nsz ogt double %15, %16
  br i1 %17, label %18, label %20

18:                                               ; preds = %14
  %19 = load double, ptr %6, align 8, !tbaa !83
  br label %30

20:                                               ; preds = %14
  %21 = load double, ptr %4, align 8, !tbaa !83
  %22 = load double, ptr %5, align 8, !tbaa !83
  %23 = fcmp nsz ogt double %21, %22
  br i1 %23, label %24, label %26

24:                                               ; preds = %20
  %25 = load double, ptr %4, align 8, !tbaa !83
  br label %28

26:                                               ; preds = %20
  %27 = load double, ptr %5, align 8, !tbaa !83
  br label %28

28:                                               ; preds = %26, %24
  %29 = phi nsz double [ %25, %24 ], [ %27, %26 ]
  br label %30

30:                                               ; preds = %28, %18
  %31 = phi nsz double [ %19, %18 ], [ %29, %28 ]
  ret double %31
}

; Function Attrs: nounwind uwtable
define internal i32 @do_chromahold16_slice(ptr noundef %0, ptr noundef %1, i32 noundef %2, i32 noundef %3) #0 {
  %5 = alloca ptr, align 8
  %6 = alloca ptr, align 8
  %7 = alloca i32, align 4
  %8 = alloca i32, align 4
  %9 = alloca ptr, align 8
  %10 = alloca ptr, align 8
  %11 = alloca i32, align 4
  %12 = alloca i32, align 4
  %13 = alloca i32, align 4
  %14 = alloca double, align 8
  %15 = alloca i32, align 4
  %16 = alloca i32, align 4
  %17 = alloca i32, align 4
  %18 = alloca i32, align 4
  %19 = alloca i32, align 4
  %20 = alloca double, align 8
  %21 = alloca i32, align 4
  %22 = alloca i32, align 4
  %23 = alloca double, align 8
  store ptr %0, ptr %5, align 8, !tbaa !4
  store ptr %1, ptr %6, align 8, !tbaa !69
  store i32 %2, ptr %7, align 4, !tbaa !11
  store i32 %3, ptr %8, align 4, !tbaa !11
  call void @llvm.lifetime.start.p0(i64 8, ptr %9) #9
  %24 = load ptr, ptr %5, align 8, !tbaa !4
  %25 = getelementptr inbounds nuw %struct.AVFilterContext, ptr %24, i32 0, i32 9
  %26 = load ptr, ptr %25, align 8, !tbaa !36
  store ptr %26, ptr %9, align 8, !tbaa !37
  call void @llvm.lifetime.start.p0(i64 8, ptr %10) #9
  %27 = load ptr, ptr %6, align 8, !tbaa !69
  store ptr %27, ptr %10, align 8, !tbaa !26
  call void @llvm.lifetime.start.p0(i64 4, ptr %11) #9
  %28 = load ptr, ptr %10, align 8, !tbaa !26
  %29 = getelementptr inbounds nuw %struct.AVFrame, ptr %28, i32 0, i32 4
  %30 = load i32, ptr %29, align 4, !tbaa !42
  %31 = load ptr, ptr %9, align 8, !tbaa !37
  %32 = getelementptr inbounds nuw %struct.ChromakeyContext, ptr %31, i32 0, i32 10
  %33 = load i32, ptr %32, align 4, !tbaa !55
  %34 = ashr i32 %30, %33
  %35 = load i32, ptr %7, align 4, !tbaa !11
  %36 = mul nsw i32 %34, %35
  %37 = load i32, ptr %8, align 4, !tbaa !11
  %38 = sdiv i32 %36, %37
  store i32 %38, ptr %11, align 4, !tbaa !11
  call void @llvm.lifetime.start.p0(i64 4, ptr %12) #9
  %39 = load ptr, ptr %10, align 8, !tbaa !26
  %40 = getelementptr inbounds nuw %struct.AVFrame, ptr %39, i32 0, i32 4
  %41 = load i32, ptr %40, align 4, !tbaa !42
  %42 = load ptr, ptr %9, align 8, !tbaa !37
  %43 = getelementptr inbounds nuw %struct.ChromakeyContext, ptr %42, i32 0, i32 10
  %44 = load i32, ptr %43, align 4, !tbaa !55
  %45 = ashr i32 %41, %44
  %46 = load i32, ptr %7, align 4, !tbaa !11
  %47 = add nsw i32 %46, 1
  %48 = mul nsw i32 %45, %47
  %49 = load i32, ptr %8, align 4, !tbaa !11
  %50 = sdiv i32 %48, %49
  store i32 %50, ptr %12, align 4, !tbaa !11
  call void @llvm.lifetime.start.p0(i64 4, ptr %13) #9
  %51 = load ptr, ptr %9, align 8, !tbaa !37
  %52 = getelementptr inbounds nuw %struct.ChromakeyContext, ptr %51, i32 0, i32 7
  %53 = load i32, ptr %52, align 8, !tbaa !60
  store i32 %53, ptr %13, align 4, !tbaa !11
  call void @llvm.lifetime.start.p0(i64 8, ptr %14) #9
  %54 = load ptr, ptr %9, align 8, !tbaa !37
  %55 = getelementptr inbounds nuw %struct.ChromakeyContext, ptr %54, i32 0, i32 8
  %56 = load i32, ptr %55, align 4, !tbaa !61
  %57 = sitofp i32 %56 to double
  store double %57, ptr %14, align 8, !tbaa !83
  call void @llvm.lifetime.start.p0(i64 4, ptr %15) #9
  call void @llvm.lifetime.start.p0(i64 4, ptr %16) #9
  call void @llvm.lifetime.start.p0(i64 4, ptr %17) #9
  %58 = load i32, ptr %11, align 4, !tbaa !11
  store i32 %58, ptr %16, align 4, !tbaa !11
  br label %59

59:                                               ; preds = %255, %4
  %60 = load i32, ptr %16, align 4, !tbaa !11
  %61 = load i32, ptr %12, align 4, !tbaa !11
  %62 = icmp slt i32 %60, %61
  br i1 %62, label %63, label %258

63:                                               ; preds = %59
  store i32 0, ptr %15, align 4, !tbaa !11
  br label %64

64:                                               ; preds = %251, %63
  %65 = load i32, ptr %15, align 4, !tbaa !11
  %66 = load ptr, ptr %10, align 8, !tbaa !26
  %67 = getelementptr inbounds nuw %struct.AVFrame, ptr %66, i32 0, i32 3
  %68 = load i32, ptr %67, align 8, !tbaa !70
  %69 = load ptr, ptr %9, align 8, !tbaa !37
  %70 = getelementptr inbounds nuw %struct.ChromakeyContext, ptr %69, i32 0, i32 9
  %71 = load i32, ptr %70, align 8, !tbaa !53
  %72 = ashr i32 %68, %71
  %73 = icmp slt i32 %65, %72
  br i1 %73, label %74, label %254

74:                                               ; preds = %64
  call void @llvm.lifetime.start.p0(i64 4, ptr %18) #9
  %75 = load ptr, ptr %10, align 8, !tbaa !26
  %76 = getelementptr inbounds nuw %struct.AVFrame, ptr %75, i32 0, i32 0
  %77 = getelementptr inbounds [8 x ptr], ptr %76, i64 0, i64 1
  %78 = load ptr, ptr %77, align 8, !tbaa !9
  %79 = load ptr, ptr %10, align 8, !tbaa !26
  %80 = getelementptr inbounds nuw %struct.AVFrame, ptr %79, i32 0, i32 1
  %81 = getelementptr inbounds [8 x i32], ptr %80, i64 0, i64 1
  %82 = load i32, ptr %81, align 4, !tbaa !11
  %83 = load i32, ptr %16, align 4, !tbaa !11
  %84 = mul nsw i32 %82, %83
  %85 = load i32, ptr %15, align 4, !tbaa !11
  %86 = mul nsw i32 2, %85
  %87 = add nsw i32 %84, %86
  %88 = sext i32 %87 to i64
  %89 = getelementptr inbounds i8, ptr %78, i64 %88
  %90 = load i16, ptr %89, align 1, !tbaa !63
  %91 = zext i16 %90 to i32
  store i32 %91, ptr %18, align 4, !tbaa !11
  call void @llvm.lifetime.start.p0(i64 4, ptr %19) #9
  %92 = load ptr, ptr %10, align 8, !tbaa !26
  %93 = getelementptr inbounds nuw %struct.AVFrame, ptr %92, i32 0, i32 0
  %94 = getelementptr inbounds [8 x ptr], ptr %93, i64 0, i64 2
  %95 = load ptr, ptr %94, align 8, !tbaa !9
  %96 = load ptr, ptr %10, align 8, !tbaa !26
  %97 = getelementptr inbounds nuw %struct.AVFrame, ptr %96, i32 0, i32 1
  %98 = getelementptr inbounds [8 x i32], ptr %97, i64 0, i64 2
  %99 = load i32, ptr %98, align 8, !tbaa !11
  %100 = load i32, ptr %16, align 4, !tbaa !11
  %101 = mul nsw i32 %99, %100
  %102 = load i32, ptr %15, align 4, !tbaa !11
  %103 = mul nsw i32 2, %102
  %104 = add nsw i32 %101, %103
  %105 = sext i32 %104 to i64
  %106 = getelementptr inbounds i8, ptr %95, i64 %105
  %107 = load i16, ptr %106, align 1, !tbaa !63
  %108 = zext i16 %107 to i32
  store i32 %108, ptr %19, align 4, !tbaa !11
  call void @llvm.lifetime.start.p0(i64 8, ptr %20) #9
  call void @llvm.lifetime.start.p0(i64 4, ptr %21) #9
  call void @llvm.lifetime.start.p0(i64 4, ptr %22) #9
  %109 = load i32, ptr %18, align 4, !tbaa !11
  %110 = load ptr, ptr %9, align 8, !tbaa !37
  %111 = getelementptr inbounds nuw %struct.ChromakeyContext, ptr %110, i32 0, i32 2
  %112 = getelementptr inbounds [2 x i16], ptr %111, i64 0, i64 0
  %113 = load i16, ptr %112, align 4, !tbaa !64
  %114 = zext i16 %113 to i32
  %115 = sub nsw i32 %109, %114
  store i32 %115, ptr %21, align 4, !tbaa !11
  %116 = load i32, ptr %19, align 4, !tbaa !11
  %117 = load ptr, ptr %9, align 8, !tbaa !37
  %118 = getelementptr inbounds nuw %struct.ChromakeyContext, ptr %117, i32 0, i32 2
  %119 = getelementptr inbounds [2 x i16], ptr %118, i64 0, i64 1
  %120 = load i16, ptr %119, align 2, !tbaa !64
  %121 = zext i16 %120 to i32
  %122 = sub nsw i32 %116, %121
  store i32 %122, ptr %22, align 4, !tbaa !11
  %123 = load i32, ptr %21, align 4, !tbaa !11
  %124 = load i32, ptr %21, align 4, !tbaa !11
  %125 = mul nsw i32 %123, %124
  %126 = load i32, ptr %22, align 4, !tbaa !11
  %127 = load i32, ptr %22, align 4, !tbaa !11
  %128 = mul nsw i32 %126, %127
  %129 = add nsw i32 %125, %128
  %130 = sitofp i32 %129 to double
  %131 = load double, ptr %14, align 8, !tbaa !83
  %132 = load double, ptr %14, align 8, !tbaa !83
  %133 = fmul nsz double %131, %132
  %134 = fmul nsz double %133, 2.000000e+00
  %135 = fdiv nsz double %130, %134
  %136 = call nsz double @llvm.sqrt.f64(double %135)
  store double %136, ptr %20, align 8, !tbaa !83
  %137 = load double, ptr %20, align 8, !tbaa !83
  %138 = load ptr, ptr %9, align 8, !tbaa !37
  %139 = getelementptr inbounds nuw %struct.ChromakeyContext, ptr %138, i32 0, i32 3
  %140 = load float, ptr %139, align 8, !tbaa !85
  %141 = fpext nsz float %140 to double
  %142 = fcmp nsz ogt double %137, %141
  %143 = zext i1 %142 to i32
  store i32 %143, ptr %17, align 4, !tbaa !11
  %144 = load ptr, ptr %9, align 8, !tbaa !37
  %145 = getelementptr inbounds nuw %struct.ChromakeyContext, ptr %144, i32 0, i32 4
  %146 = load float, ptr %145, align 4, !tbaa !86
  %147 = fpext nsz float %146 to double
  %148 = fcmp nsz ogt double %147, 1.000000e-04
  br i1 %148, label %149, label %211

149:                                              ; preds = %74
  call void @llvm.lifetime.start.p0(i64 8, ptr %23) #9
  %150 = load double, ptr %20, align 8, !tbaa !83
  %151 = load ptr, ptr %9, align 8, !tbaa !37
  %152 = getelementptr inbounds nuw %struct.ChromakeyContext, ptr %151, i32 0, i32 3
  %153 = load float, ptr %152, align 8, !tbaa !85
  %154 = fpext nsz float %153 to double
  %155 = fsub nsz double %150, %154
  %156 = load ptr, ptr %9, align 8, !tbaa !37
  %157 = getelementptr inbounds nuw %struct.ChromakeyContext, ptr %156, i32 0, i32 4
  %158 = load float, ptr %157, align 4, !tbaa !86
  %159 = fpext nsz float %158 to double
  %160 = fdiv nsz double %155, %159
  %161 = call nsz double @av_clipd_c(double noundef %160, double noundef 0.000000e+00, double noundef 1.000000e+00) #12
  %162 = fsub nsz double 1.000000e+00, %161
  store double %162, ptr %23, align 8, !tbaa !83
  %163 = load i32, ptr %13, align 4, !tbaa !11
  %164 = sitofp i32 %163 to double
  %165 = load i32, ptr %18, align 4, !tbaa !11
  %166 = load i32, ptr %13, align 4, !tbaa !11
  %167 = sub nsw i32 %165, %166
  %168 = sitofp i32 %167 to double
  %169 = load double, ptr %23, align 8, !tbaa !83
  %170 = call nsz double @llvm.fmuladd.f64(double %168, double %169, double %164)
  %171 = fptoui double %170 to i16
  %172 = load ptr, ptr %10, align 8, !tbaa !26
  %173 = getelementptr inbounds nuw %struct.AVFrame, ptr %172, i32 0, i32 0
  %174 = getelementptr inbounds [8 x ptr], ptr %173, i64 0, i64 1
  %175 = load ptr, ptr %174, align 8, !tbaa !9
  %176 = load ptr, ptr %10, align 8, !tbaa !26
  %177 = getelementptr inbounds nuw %struct.AVFrame, ptr %176, i32 0, i32 1
  %178 = getelementptr inbounds [8 x i32], ptr %177, i64 0, i64 1
  %179 = load i32, ptr %178, align 4, !tbaa !11
  %180 = load i32, ptr %16, align 4, !tbaa !11
  %181 = mul nsw i32 %179, %180
  %182 = load i32, ptr %15, align 4, !tbaa !11
  %183 = mul nsw i32 2, %182
  %184 = add nsw i32 %181, %183
  %185 = sext i32 %184 to i64
  %186 = getelementptr inbounds i8, ptr %175, i64 %185
  store i16 %171, ptr %186, align 1, !tbaa !63
  %187 = load i32, ptr %13, align 4, !tbaa !11
  %188 = sitofp i32 %187 to double
  %189 = load i32, ptr %19, align 4, !tbaa !11
  %190 = load i32, ptr %13, align 4, !tbaa !11
  %191 = sub nsw i32 %189, %190
  %192 = sitofp i32 %191 to double
  %193 = load double, ptr %23, align 8, !tbaa !83
  %194 = call nsz double @llvm.fmuladd.f64(double %192, double %193, double %188)
  %195 = fptoui double %194 to i16
  %196 = load ptr, ptr %10, align 8, !tbaa !26
  %197 = getelementptr inbounds nuw %struct.AVFrame, ptr %196, i32 0, i32 0
  %198 = getelementptr inbounds [8 x ptr], ptr %197, i64 0, i64 2
  %199 = load ptr, ptr %198, align 8, !tbaa !9
  %200 = load ptr, ptr %10, align 8, !tbaa !26
  %201 = getelementptr inbounds nuw %struct.AVFrame, ptr %200, i32 0, i32 1
  %202 = getelementptr inbounds [8 x i32], ptr %201, i64 0, i64 2
  %203 = load i32, ptr %202, align 8, !tbaa !11
  %204 = load i32, ptr %16, align 4, !tbaa !11
  %205 = mul nsw i32 %203, %204
  %206 = load i32, ptr %15, align 4, !tbaa !11
  %207 = mul nsw i32 2, %206
  %208 = add nsw i32 %205, %207
  %209 = sext i32 %208 to i64
  %210 = getelementptr inbounds i8, ptr %199, i64 %209
  store i16 %195, ptr %210, align 1, !tbaa !63
  call void @llvm.lifetime.end.p0(i64 8, ptr %23) #9
  br label %250

211:                                              ; preds = %74
  %212 = load i32, ptr %17, align 4, !tbaa !11
  %213 = icmp ne i32 %212, 0
  br i1 %213, label %214, label %249

214:                                              ; preds = %211
  %215 = load i32, ptr %13, align 4, !tbaa !11
  %216 = trunc i32 %215 to i16
  %217 = load ptr, ptr %10, align 8, !tbaa !26
  %218 = getelementptr inbounds nuw %struct.AVFrame, ptr %217, i32 0, i32 0
  %219 = getelementptr inbounds [8 x ptr], ptr %218, i64 0, i64 1
  %220 = load ptr, ptr %219, align 8, !tbaa !9
  %221 = load ptr, ptr %10, align 8, !tbaa !26
  %222 = getelementptr inbounds nuw %struct.AVFrame, ptr %221, i32 0, i32 1
  %223 = getelementptr inbounds [8 x i32], ptr %222, i64 0, i64 1
  %224 = load i32, ptr %223, align 4, !tbaa !11
  %225 = load i32, ptr %16, align 4, !tbaa !11
  %226 = mul nsw i32 %224, %225
  %227 = load i32, ptr %15, align 4, !tbaa !11
  %228 = mul nsw i32 2, %227
  %229 = add nsw i32 %226, %228
  %230 = sext i32 %229 to i64
  %231 = getelementptr inbounds i8, ptr %220, i64 %230
  store i16 %216, ptr %231, align 1, !tbaa !63
  %232 = load i32, ptr %13, align 4, !tbaa !11
  %233 = trunc i32 %232 to i16
  %234 = load ptr, ptr %10, align 8, !tbaa !26
  %235 = getelementptr inbounds nuw %struct.AVFrame, ptr %234, i32 0, i32 0
  %236 = getelementptr inbounds [8 x ptr], ptr %235, i64 0, i64 2
  %237 = load ptr, ptr %236, align 8, !tbaa !9
  %238 = load ptr, ptr %10, align 8, !tbaa !26
  %239 = getelementptr inbounds nuw %struct.AVFrame, ptr %238, i32 0, i32 1
  %240 = getelementptr inbounds [8 x i32], ptr %239, i64 0, i64 2
  %241 = load i32, ptr %240, align 8, !tbaa !11
  %242 = load i32, ptr %16, align 4, !tbaa !11
  %243 = mul nsw i32 %241, %242
  %244 = load i32, ptr %15, align 4, !tbaa !11
  %245 = mul nsw i32 2, %244
  %246 = add nsw i32 %243, %245
  %247 = sext i32 %246 to i64
  %248 = getelementptr inbounds i8, ptr %237, i64 %247
  store i16 %233, ptr %248, align 1, !tbaa !63
  br label %249

249:                                              ; preds = %214, %211
  br label %250

250:                                              ; preds = %249, %149
  call void @llvm.lifetime.end.p0(i64 4, ptr %22) #9
  call void @llvm.lifetime.end.p0(i64 4, ptr %21) #9
  call void @llvm.lifetime.end.p0(i64 8, ptr %20) #9
  call void @llvm.lifetime.end.p0(i64 4, ptr %19) #9
  call void @llvm.lifetime.end.p0(i64 4, ptr %18) #9
  br label %251

251:                                              ; preds = %250
  %252 = load i32, ptr %15, align 4, !tbaa !11
  %253 = add nsw i32 %252, 1
  store i32 %253, ptr %15, align 4, !tbaa !11
  br label %64, !llvm.loop !89

254:                                              ; preds = %64
  br label %255

255:                                              ; preds = %254
  %256 = load i32, ptr %16, align 4, !tbaa !11
  %257 = add nsw i32 %256, 1
  store i32 %257, ptr %16, align 4, !tbaa !11
  br label %59, !llvm.loop !90

258:                                              ; preds = %59
  call void @llvm.lifetime.end.p0(i64 4, ptr %17) #9
  call void @llvm.lifetime.end.p0(i64 4, ptr %16) #9
  call void @llvm.lifetime.end.p0(i64 4, ptr %15) #9
  call void @llvm.lifetime.end.p0(i64 8, ptr %14) #9
  call void @llvm.lifetime.end.p0(i64 4, ptr %13) #9
  call void @llvm.lifetime.end.p0(i64 4, ptr %12) #9
  call void @llvm.lifetime.end.p0(i64 4, ptr %11) #9
  call void @llvm.lifetime.end.p0(i64 8, ptr %10) #9
  call void @llvm.lifetime.end.p0(i64 8, ptr %9) #9
  ret i32 0
}