; Function Attrs: nofree norecurse nosync nounwind memory(readwrite, inaccessiblemem: none) uwtable
define internal noundef i32 @do_chromahold16_slice(ptr noundef readonly captures(none) %0, ptr noundef readonly captures(none) %1, i32 noundef %2, i32 noundef %3) #7 {
  %5 = getelementptr inbounds nuw i8, ptr %0, i64 72
  %6 = load ptr, ptr %5, align 8, !tbaa !31
  %7 = getelementptr inbounds nuw i8, ptr %1, i64 108
  %8 = load i32, ptr %7, align 4, !tbaa !35
  %9 = getelementptr inbounds nuw i8, ptr %6, i64 44
  %10 = load i32, ptr %9, align 4, !tbaa !46
  %11 = ashr i32 %8, %10
  %12 = mul nsw i32 %11, %2
  %13 = sdiv i32 %12, %3
  %14 = add nsw i32 %2, 1
  %15 = mul nsw i32 %11, %14
  %16 = sdiv i32 %15, %3
  %17 = getelementptr inbounds nuw i8, ptr %6, i64 32
  %18 = load i32, ptr %17, align 8, !tbaa !51
  %19 = icmp slt i32 %13, %16
  br i1 %19, label %.preheader.lr.ph, label %._crit_edge74

.preheader.lr.ph:                                 ; preds = %4
  %20 = getelementptr inbounds nuw i8, ptr %6, i64 36
  %21 = load i32, ptr %20, align 4, !tbaa !52
  %22 = sitofp i32 %21 to double
  %23 = getelementptr inbounds nuw i8, ptr %1, i64 104
  %24 = getelementptr inbounds nuw i8, ptr %6, i64 40
  %25 = getelementptr inbounds nuw i8, ptr %1, i64 8
  %26 = getelementptr inbounds nuw i8, ptr %1, i64 68
  %27 = getelementptr inbounds nuw i8, ptr %1, i64 16
  %28 = getelementptr inbounds nuw i8, ptr %1, i64 72
  %29 = getelementptr inbounds nuw i8, ptr %6, i64 12
  %30 = getelementptr inbounds nuw i8, ptr %6, i64 14
  %31 = fmul nsz double %22, %22
  %32 = fmul nsz double %31, 2.000000e+00
  %33 = getelementptr inbounds nuw i8, ptr %6, i64 16
  %34 = getelementptr inbounds nuw i8, ptr %6, i64 20
  %35 = trunc i32 %18 to i16
  %36 = sitofp i32 %18 to double
  %.pre = load i32, ptr %23, align 8, !tbaa !60
  %.pre75 = load i32, ptr %24, align 8, !tbaa !44
  br label %.preheader

.preheader:                                       ; preds = %.preheader.lr.ph, %._crit_edge
  %37 = phi i32 [ %.pre75, %.preheader.lr.ph ], [ %105, %._crit_edge ]
  %38 = phi i32 [ %.pre, %.preheader.lr.ph ], [ %106, %._crit_edge ]
  %.07073 = phi i32 [ %13, %.preheader.lr.ph ], [ %107, %._crit_edge ]
  %39 = ashr i32 %38, %37
  %40 = icmp sgt i32 %39, 0
  br i1 %40, label %.lr.ph, label %._crit_edge

.lr.ph:                                           ; preds = %.preheader, %99
  %.072 = phi i32 [ %100, %99 ], [ 0, %.preheader ]
  %41 = load ptr, ptr %25, align 8, !tbaa !61
  %42 = load i32, ptr %26, align 4, !tbaa !62
  %43 = mul nsw i32 %42, %.07073
  %44 = shl nuw nsw i32 %.072, 1
  %45 = add nsw i32 %43, %44
  %46 = sext i32 %45 to i64
  %47 = getelementptr inbounds i8, ptr %41, i64 %46
  %48 = load i16, ptr %47, align 1, !tbaa !54
  %49 = zext i16 %48 to i32
  %50 = load ptr, ptr %27, align 8, !tbaa !61
  %51 = load i32, ptr %28, align 8, !tbaa !62
  %52 = mul nsw i32 %51, %.07073
  %53 = add nsw i32 %52, %44
  %54 = sext i32 %53 to i64
  %55 = getelementptr inbounds i8, ptr %50, i64 %54
  %56 = load i16, ptr %55, align 1, !tbaa !54
  %57 = zext i16 %56 to i32
  %58 = load i16, ptr %29, align 4, !tbaa !55
  %59 = zext i16 %58 to i32
  %60 = sub nsw i32 %49, %59
  %61 = load i16, ptr %30, align 2, !tbaa !55
  %62 = zext i16 %61 to i32
  %63 = sub nsw i32 %57, %62
  %64 = mul nsw i32 %60, %60
  %65 = mul nsw i32 %63, %63
  %66 = add nuw nsw i32 %65, %64
  %67 = uitofp nneg i32 %66 to double
  %68 = fdiv nsz double %67, %32
  %69 = tail call nsz double @llvm.sqrt.f64(double %68)
  %70 = load float, ptr %33, align 8, !tbaa !68
  %71 = fpext nsz float %70 to double
  %72 = load float, ptr %34, align 4, !tbaa !67
  %73 = fpext nsz float %72 to double
  %74 = fcmp nsz ogt double %73, 1.000000e-04
  br i1 %74, label %75, label %90

75:                                               ; preds = %.lr.ph
  %76 = fsub nsz double %69, %71
  %77 = fdiv nsz double %76, %73
  %78 = fcmp nsz ogt double %77, 0.000000e+00
  %79 = select nsz i1 %78, double %77, double 0.000000e+00
  %80 = fcmp nsz ogt double %79, 1.000000e+00
  %..i = select nsz i1 %80, double 1.000000e+00, double %79
  %81 = fsub nsz double 1.000000e+00, %..i
  %82 = sub nsw i32 %49, %18
  %83 = sitofp i32 %82 to double
  %84 = tail call nsz double @llvm.fmuladd.f64(double %83, double %81, double %36)
  %85 = fptoui double %84 to i16
  store i16 %85, ptr %47, align 1, !tbaa !54
  %86 = sub nsw i32 %57, %18
  %87 = sitofp i32 %86 to double
  %88 = tail call nsz double @llvm.fmuladd.f64(double %87, double %81, double %36)
  %89 = fptoui double %88 to i16
  br label %.sink.split

90:                                               ; preds = %.lr.ph
  %91 = fcmp nsz ogt double %69, %71
  br i1 %91, label %92, label %99

92:                                               ; preds = %90
  store i16 %35, ptr %47, align 1, !tbaa !54
  br label %.sink.split

.sink.split:                                      ; preds = %75, %92
  %.sink = phi i16 [ %35, %92 ], [ %89, %75 ]
  %93 = load ptr, ptr %27, align 8, !tbaa !61
  %94 = load i32, ptr %28, align 8, !tbaa !62
  %95 = mul nsw i32 %94, %.07073
  %96 = add nsw i32 %95, %44
  %97 = sext i32 %96 to i64
  %98 = getelementptr inbounds i8, ptr %93, i64 %97
  store i16 %.sink, ptr %98, align 1, !tbaa !54
  br label %99

99:                                               ; preds = %.sink.split, %90
  %100 = add nuw nsw i32 %.072, 1
  %101 = load i32, ptr %23, align 8, !tbaa !60
  %102 = load i32, ptr %24, align 8, !tbaa !44
  %103 = ashr i32 %101, %102
  %104 = icmp slt i32 %100, %103
  br i1 %104, label %.lr.ph, label %._crit_edge, !llvm.loop !80

._crit_edge:                                      ; preds = %99, %.preheader
  %105 = phi i32 [ %37, %.preheader ], [ %102, %99 ]
  %106 = phi i32 [ %38, %.preheader ], [ %101, %99 ]
  %107 = add nsw i32 %.07073, 1
  %exitcond.not = icmp eq i32 %107, %16
  br i1 %exitcond.not, label %._crit_edge74, label %.preheader, !llvm.loop !81

._crit_edge74:                                    ; preds = %._crit_edge, %4
  ret i32 0
}